target datalayout = "e-m:e-p270:32:32-p271:32:32-p272:64:64-i64:64-i128:128-f80:128-n8:16:32:64-S128"
target triple = "x86_64-pc-linux-gnu"

%struct.AVCodecContext = type { ptr, i32, i32, ptr, i32, i32, ptr, ptr, ptr, i64, i32, i32, ptr, i32, %struct.AVRational, %struct.AVRational, %struct.AVRational, i32, i32, i32, i32, i32, %struct.AVRational, i32, i32, i32, i32, i32, i32, i32, i32, i32, i32, i32, ptr, ptr, i32, float, float, float, float, float, float, float, float, float, i32, i32, i32, i32, i32, i32, i32, i32, i32, i32, i32, i32, ptr, ptr, ptr, i32, i32, i32, i32, i32, i32, i32, i32, i32, i32, %struct.AVChannelLayout, i32, i32, i32, i32, i32, i32, i32, i32, ptr, i32, i32, i32, float, float, i32, i32, i32, i32, i32, ptr, i64, i64, float, float, i32, i32, ptr, ptr, i32, i32, i32, i32, i32, ptr, ptr, ptr, ptr, i32, i32, [8 x i64], i32, i32, i32, i32, i32, i32, i32, ptr, ptr, i32, i32, i32, i32, i32, i32, i32, i32, i32, i32, ptr, ptr, i32, i32, ptr, ptr, ptr, ptr, i32, i32, i64, i32, i32, i64, ptr, i64, ptr, i32, ptr, i32 }
%struct.AVRational = type { i32, i32 }
%struct.AVChannelLayout = type { i32, i32, %union.anon.0, ptr }
%union.anon.0 = type { i64 }
%struct.ArgoContext = type { %struct.GetByteContext, i32, i32, [128 x [2 x i32]], [16 x [2 x i32]], [256 x i32], ptr }
%struct.GetByteContext = type { ptr, ptr, ptr }

@.str.2 = private unnamed_addr constant [12 x i8] c"depth == %u\00", align 1
@.str.3 = private unnamed_addr constant [16 x i8] c"Odd dimensions\0A\00", align 1

; Function Attrs: cold nounwind optsize uwtable
define internal i32 @decode_init(ptr noundef %0) #0 {
  %2 = alloca i32, align 4
  %3 = alloca ptr, align 8
  %4 = alloca ptr, align 8
  %5 = alloca i32, align 4
  %6 = alloca i32, align 4
  %7 = alloca i32, align 4
  %8 = alloca i32, align 4
  %9 = alloca i32, align 4
  %10 = alloca i32, align 4
  %11 = alloca i32, align 4
  store ptr %0, ptr %3, align 8, !tbaa !4
  call void @llvm.lifetime.start.p0(i64 8, ptr %4) #9
  %12 = load ptr, ptr %3, align 8, !tbaa !4
  %13 = getelementptr inbounds nuw %struct.AVCodecContext, ptr %12, i32 0, i32 6
  %14 = load ptr, ptr %13, align 8, !tbaa !9
  store ptr %14, ptr %4, align 8, !tbaa !29
  %15 = load ptr, ptr %3, align 8, !tbaa !4
  %16 = getelementptr inbounds nuw %struct.AVCodecContext, ptr %15, i32 0, i32 114
  %17 = load i32, ptr %16, align 8, !tbaa !31
  switch i32 %17, label %28 [
    i32 8, label %18
    i32 24, label %23
  ]

18:                                               ; preds = %1
  %19 = load ptr, ptr %4, align 8, !tbaa !29
  %20 = getelementptr inbounds nuw %struct.ArgoContext, ptr %19, i32 0, i32 1
  store i32 1, ptr %20, align 8, !tbaa !32
  %21 = load ptr, ptr %3, align 8, !tbaa !4
  %22 = getelementptr inbounds nuw %struct.AVCodecContext, ptr %21, i32 0, i32 23
  store i32 11, ptr %22, align 8, !tbaa !36
  br label %33

23:                                               ; preds = %1
  %24 = load ptr, ptr %4, align 8, !tbaa !29
  %25 = getelementptr inbounds nuw %struct.ArgoContext, ptr %24, i32 0, i32 1
  store i32 4, ptr %25, align 8, !tbaa !32
  %26 = load ptr, ptr %3, align 8, !tbaa !4
  %27 = getelementptr inbounds nuw %struct.AVCodecContext, ptr %26, i32 0, i32 23
  store i32 121, ptr %27, align 8, !tbaa !36
  br label %33

28:                                               ; preds = %1
  %29 = load ptr, ptr %4, align 8, !tbaa !29
  %30 = load ptr, ptr %3, align 8, !tbaa !4
  %31 = getelementptr inbounds nuw %struct.AVCodecContext, ptr %30, i32 0, i32 114
  %32 = load i32, ptr %31, align 8, !tbaa !31
  call void (ptr, ptr, ...) @avpriv_request_sample(ptr noundef %29, ptr noundef @.str.2, i32 noundef %32)
  store i32 -1163346256, ptr %2, align 4
  store i32 1, ptr %5, align 4
  br label %121

33:                                               ; preds = %23, %18
  %34 = load ptr, ptr %3, align 8, !tbaa !4
  %35 = getelementptr inbounds nuw %struct.AVCodecContext, ptr %34, i32 0, i32 18
  %36 = load i32, ptr %35, align 8, !tbaa !37
  %37 = srem i32 %36, 2
  %38 = icmp ne i32 %37, 0
  br i1 %38, label %45, label %39

39:                                               ; preds = %33
  %40 = load ptr, ptr %3, align 8, !tbaa !4
  %41 = getelementptr inbounds nuw %struct.AVCodecContext, ptr %40, i32 0, i32 19
  %42 = load i32, ptr %41, align 4, !tbaa !38
  %43 = srem i32 %42, 2
  %44 = icmp ne i32 %43, 0
  br i1 %44, label %45, label %47

45:                                               ; preds = %39, %33
  %46 = load ptr, ptr %4, align 8, !tbaa !29
  call void (ptr, ptr, ...) @avpriv_request_sample(ptr noundef %46, ptr noundef @.str.3)
  store i32 -1163346256, ptr %2, align 4
  store i32 1, ptr %5, align 4
  br label %121

47:                                               ; preds = %39
  %48 = call ptr @av_frame_alloc()
  %49 = load ptr, ptr %4, align 8, !tbaa !29
  %50 = getelementptr inbounds nuw %struct.ArgoContext, ptr %49, i32 0, i32 6
  store ptr %48, ptr %50, align 8, !tbaa !39
  %51 = load ptr, ptr %4, align 8, !tbaa !29
  %52 = getelementptr inbounds nuw %struct.ArgoContext, ptr %51, i32 0, i32 6
  %53 = load ptr, ptr %52, align 8, !tbaa !39
  %54 = icmp ne ptr %53, null
  br i1 %54, label %56, label %55

55:                                               ; preds = %47
  store i32 -12, ptr %2, align 4
  store i32 1, ptr %5, align 4
  br label %121

56:                                               ; preds = %47
  call void @llvm.lifetime.start.p0(i64 4, ptr %6) #9
  store i32 0, ptr %6, align 4, !tbaa !40
  call void @llvm.lifetime.start.p0(i64 4, ptr %7) #9
  store i32 -4, ptr %7, align 4, !tbaa !40
  br label %57

57:                                               ; preds = %86, %56
  %58 = load i32, ptr %7, align 4, !tbaa !40
  %59 = icmp slt i32 %58, 4
  br i1 %59, label %61, label %60

60:                                               ; preds = %57
  store i32 3, ptr %5, align 4
  call void @llvm.lifetime.end.p0(i64 4, ptr %7) #9
  call void @llvm.lifetime.end.p0(i64 4, ptr %6) #9
  br label %89

61:                                               ; preds = %57
  call void @llvm.lifetime.start.p0(i64 4, ptr %8) #9
  store i32 -14, ptr %8, align 4, !tbaa !40
  br label %62

62:                                               ; preds = %82, %61
  %63 = load i32, ptr %8, align 4, !tbaa !40
  %64 = icmp slt i32 %63, 2
  br i1 %64, label %66, label %65

65:                                               ; preds = %62
  store i32 6, ptr %5, align 4
  call void @llvm.lifetime.end.p0(i64 4, ptr %8) #9
  br label %85

66:                                               ; preds = %62
  %67 = load i32, ptr %8, align 4, !tbaa !40
  %68 = load ptr, ptr %4, align 8, !tbaa !29
  %69 = getelementptr inbounds nuw %struct.ArgoContext, ptr %68, i32 0, i32 3
  %70 = load i32, ptr %6, align 4, !tbaa !40
  %71 = sext i32 %70 to i64
  %72 = getelementptr inbounds [128 x [2 x i32]], ptr %69, i64 0, i64 %71
  %73 = getelementptr inbounds [2 x i32], ptr %72, i64 0, i64 0
  store i32 %67, ptr %73, align 8, !tbaa !40
  %74 = load i32, ptr %7, align 4, !tbaa !40
  %75 = load ptr, ptr %4, align 8, !tbaa !29
  %76 = getelementptr inbounds nuw %struct.ArgoContext, ptr %75, i32 0, i32 3
  %77 = load i32, ptr %6, align 4, !tbaa !40
  %78 = add nsw i32 %77, 1
  store i32 %78, ptr %6, align 4, !tbaa !40
  %79 = sext i32 %77 to i64
  %80 = getelementptr inbounds [128 x [2 x i32]], ptr %76, i64 0, i64 %79
  %81 = getelementptr inbounds [2 x i32], ptr %80, i64 0, i64 1
  store i32 %74, ptr %81, align 4, !tbaa !40
  br label %82

82:                                               ; preds = %66
  %83 = load i32, ptr %8, align 4, !tbaa !40
  %84 = add nsw i32 %83, 1
  store i32 %84, ptr %8, align 4, !tbaa !40
  br label %62, !llvm.loop !41

85:                                               ; preds = %65
  br label %86

86:                                               ; preds = %85
  %87 = load i32, ptr %7, align 4, !tbaa !40
  %88 = add nsw i32 %87, 1
  store i32 %88, ptr %7, align 4, !tbaa !40
  br label %57, !llvm.loop !43

89:                                               ; preds = %60
  call void @llvm.lifetime.start.p0(i64 4, ptr %9) #9
  store i32 0, ptr %9, align 4, !tbaa !40
  call void @llvm.lifetime.start.p0(i64 4, ptr %10) #9
  store i32 -5, ptr %10, align 4, !tbaa !40
  br label %90

90:                                               ; preds = %117, %89
  %91 = load i32, ptr %10, align 4, !tbaa !40
  %92 = icmp sle i32 %91, 1
  br i1 %92, label %94, label %93

93:                                               ; preds = %90
  store i32 9, ptr %5, align 4
  call void @llvm.lifetime.end.p0(i64 4, ptr %10) #9
  call void @llvm.lifetime.end.p0(i64 4, ptr %9) #9
  br label %120

94:                                               ; preds = %90
  call void @llvm.lifetime.start.p0(i64 4, ptr %11) #9
  store i32 -5, ptr %11, align 4, !tbaa !40
  br label %95

95:                                               ; preds = %98, %94
  %96 = load i32, ptr %11, align 4, !tbaa !40
  %97 = icmp sle i32 %96, 1
  br i1 %97, label %98, label %116

98:                                               ; preds = %95
  %99 = load i32, ptr %11, align 4, !tbaa !40
  %100 = load ptr, ptr %4, align 8, !tbaa !29
  %101 = getelementptr inbounds nuw %struct.ArgoContext, ptr %100, i32 0, i32 4
  %102 = load i32, ptr %9, align 4, !tbaa !40
  %103 = sext i32 %102 to i64
  %104 = getelementptr inbounds [16 x [2 x i32]], ptr %101, i64 0, i64 %103
  %105 = getelementptr inbounds [2 x i32], ptr %104, i64 0, i64 0
  store i32 %99, ptr %105, align 8, !tbaa !40
  %106 = load i32, ptr %10, align 4, !tbaa !40
  %107 = load ptr, ptr %4, align 8, !tbaa !29
  %108 = getelementptr inbounds nuw %struct.ArgoContext, ptr %107, i32 0, i32 4
  %109 = load i32, ptr %9, align 4, !tbaa !40
  %110 = add nsw i32 %109, 1
  store i32 %110, ptr %9, align 4, !tbaa !40
  %111 = sext i32 %109 to i64
  %112 = getelementptr inbounds [16 x [2 x i32]], ptr %108, i64 0, i64 %111
  %113 = getelementptr inbounds [2 x i32], ptr %112, i64 0, i64 1
  store i32 %106, ptr %113, align 4, !tbaa !40
  %114 = load i32, ptr %11, align 4, !tbaa !40
  %115 = add nsw i32 %114, 2
  store i32 %115, ptr %11, align 4, !tbaa !40
  br label %95, !llvm.loop !44

116:                                              ; preds = %95
  call void @llvm.lifetime.end.p0(i64 4, ptr %11) #9
  br label %117

117:                                              ; preds = %116
  %118 = load i32, ptr %10, align 4, !tbaa !40
  %119 = add nsw i32 %118, 2
  store i32 %119, ptr %10, align 4, !tbaa !40
  br label %90, !llvm.loop !45

120:                                              ; preds = %93
  store i32 0, ptr %2, align 4
  store i32 1, ptr %5, align 4
  br label %121

121:                                              ; preds = %120, %55, %45, %28
  call void @llvm.lifetime.end.p0(i64 8, ptr %4) #9
  %122 = load i32, ptr %2, align 4
  ret i32 %122
}