; Function Attrs: cold nounwind optsize uwtable
define internal range(i32 -1163346256, 1) i32 @decode_init(ptr noundef captures(none) %0) #0 {
  %2 = getelementptr inbounds nuw i8, ptr %0, i64 32
  %3 = load ptr, ptr %2, align 8, !tbaa !4
  %4 = getelementptr inbounds nuw i8, ptr %0, i64 648
  %5 = load i32, ptr %4, align 8, !tbaa !27
  switch i32 %5, label %7 [
    i32 8, label %8
    i32 24, label %6
  ]

6:                                                ; preds = %1
  br label %8

7:                                                ; preds = %1
  tail call void (ptr, ptr, ...) @avpriv_request_sample(ptr noundef %3, ptr noundef nonnull @.str.2, i32 noundef %5) #6
  br label %.loopexit

8:                                                ; preds = %1, %6
  %.sink62 = phi i32 [ 4, %6 ], [ 1, %1 ]
  %.sink = phi i32 [ 121, %6 ], [ 11, %1 ]
  %9 = getelementptr inbounds nuw i8, ptr %3, i64 24
  store i32 %.sink62, ptr %9, align 8, !tbaa !28
  %10 = getelementptr inbounds nuw i8, ptr %0, i64 136
  store i32 %.sink, ptr %10, align 8, !tbaa !32
  %11 = getelementptr inbounds nuw i8, ptr %0, i64 112
  %12 = load i32, ptr %11, align 8, !tbaa !33
  %13 = and i32 %12, 1
  %.not = icmp eq i32 %13, 0
  br i1 %.not, label %14, label %18

14:                                               ; preds = %8
  %15 = getelementptr inbounds nuw i8, ptr %0, i64 116
  %16 = load i32, ptr %15, align 4, !tbaa !34
  %17 = and i32 %16, 1
  %.not40 = icmp eq i32 %17, 0
  br i1 %.not40, label %19, label %18

18:                                               ; preds = %14, %8
  tail call void (ptr, ptr, ...) @avpriv_request_sample(ptr noundef nonnull %3, ptr noundef nonnull @.str.3) #6
  br label %.loopexit

19:                                               ; preds = %14
  %20 = tail call ptr @av_frame_alloc() #6
  %21 = getelementptr inbounds nuw i8, ptr %3, i64 2208
  store ptr %20, ptr %21, align 8, !tbaa !35
  %.not41 = icmp eq ptr %20, null
  br i1 %.not41, label %.loopexit, label %.preheader44

.preheader44:                                     ; preds = %19
  %22 = getelementptr inbounds nuw i8, ptr %3, i64 32
  br label %.preheader43

.preheader43:                                     ; preds = %.preheader44, %26
  %.03648 = phi i32 [ -4, %.preheader44 ], [ %27, %26 ]
  %.03747 = phi i32 [ 0, %.preheader44 ], [ %24, %26 ]
  %23 = sext i32 %.03747 to i64
  %24 = add i32 %.03747, 16
  br label %28

.preheader42:                                     ; preds = %26
  %25 = getelementptr inbounds nuw i8, ptr %3, i64 1056
  br label %.preheader

26:                                               ; preds = %28
  %27 = add nsw i32 %.03648, 1
  %exitcond55.not = icmp eq i32 %27, 4
  br i1 %exitcond55.not, label %.preheader42, label %.preheader43, !llvm.loop !36

28:                                               ; preds = %.preheader43, %28
  %indvars.iv = phi i64 [ %23, %.preheader43 ], [ %indvars.iv.next, %28 ]
  %.03546 = phi i32 [ -14, %.preheader43 ], [ %31, %28 ]
  %29 = getelementptr inbounds [128 x [2 x i32]], ptr %22, i64 0, i64 %indvars.iv
  store i32 %.03546, ptr %29, align 8, !tbaa !38
  %indvars.iv.next = add nsw i64 %indvars.iv, 1
  %30 = getelementptr inbounds nuw i8, ptr %29, i64 4
  store i32 %.03648, ptr %30, align 4, !tbaa !38
  %31 = add nsw i32 %.03546, 1
  %lftr.wideiv = trunc i64 %indvars.iv.next to i32
  %exitcond.not = icmp eq i32 %24, %lftr.wideiv
  br i1 %exitcond.not, label %26, label %28, !llvm.loop !39

.preheader:                                       ; preds = %.preheader42, %38
  %.03352 = phi i32 [ -5, %.preheader42 ], [ %39, %38 ]
  %.03451 = phi i32 [ 0, %.preheader42 ], [ %33, %38 ]
  %32 = sext i32 %.03451 to i64
  %33 = add i32 %.03451, 4
  br label %34

34:                                               ; preds = %.preheader, %34
  %indvars.iv56 = phi i64 [ %32, %.preheader ], [ %indvars.iv.next57, %34 ]
  %.050 = phi i32 [ -5, %.preheader ], [ %37, %34 ]
  %35 = getelementptr inbounds [16 x [2 x i32]], ptr %25, i64 0, i64 %indvars.iv56
  store i32 %.050, ptr %35, align 8, !tbaa !38
  %indvars.iv.next57 = add nsw i64 %indvars.iv56, 1
  %36 = getelementptr inbounds nuw i8, ptr %35, i64 4
  store i32 %.03352, ptr %36, align 4, !tbaa !38
  %37 = add nsw i32 %.050, 2
  %lftr.wideiv59 = trunc i64 %indvars.iv.next57 to i32
  %exitcond60.not = icmp eq i32 %33, %lftr.wideiv59
  br i1 %exitcond60.not, label %38, label %34, !llvm.loop !40

38:                                               ; preds = %34
  %39 = add nsw i32 %.03352, 2
  %40 = icmp slt i32 %.03352, 0
  br i1 %40, label %.preheader, label %.loopexit, !llvm.loop !41

.loopexit:                                        ; preds = %38, %19, %18, %7
  %.039 = phi i32 [ -1163346256, %7 ], [ -1163346256, %18 ], [ -12, %19 ], [ 0, %38 ]
  ret i32 %.039
}